; Function Attrs: nounwind uwtable
define hidden i32 @lj_opt_fwd_hload(ptr noundef %0) local_unnamed_addr #2 {
  %2 = getelementptr inbounds nuw i8, ptr %0, i64 184
  %3 = load i16, ptr %2, align 8, !tbaa !4
  %4 = zext i16 %3 to i32
  %5 = tail call fastcc i32 @fwd_ahload(ptr noundef %0, i32 noundef %4)
  %.not = icmp eq i32 %5, 0
  br i1 %.not, label %6, label %8

6:                                                ; preds = %1
  %7 = tail call i32 @lj_ir_emit(ptr noundef nonnull %0) #6
  br label %8

8:                                                ; preds = %1, %6
  %.0 = phi i32 [ %7, %6 ], [ %5, %1 ]
  ret i32 %.0
}